Certificate:
    Data:
        Version: 1 (0x0)
        Serial Number: 1 (0x1)
    Signature Algorithm: sha256WithRSAEncryption
        Issuer: C=US, CN=ONF
        Validity
            Not Before: Jun 12 19:15:42 2019 GMT
            Not After : May 19 19:15:42 2119 GMT
        Subject: CN=config.onosproject.org, C=US
        Subject Public Key Info:
            Public Key Algorithm: rsaEncryption
                Public-Key: (2048 bit)
                Modulus:
                    00:c8:79:47:b7:d9:1a:20:7a:b2:e3:71:3c:f7:69:
                    f1:9e:b8:ea:a3:eb:ff:8d:14:83:d7:70:10:00:0e:
                    7f:1e:b2:11:99:1b:78:2a:c5:6b:84:6d:77:0d:1a:
                    98:fa:c1:85:26:45:b2:04:91:95:32:c0:cf:1c:64:
                    dc:0d:d4:28:1e:49:f0:80:97:81:57:e6:a3:24:bc:
                    3e:5f:2a:b8:df:74:22:4e:9a:b8:b2:2a:5c:95:82:
                    6e:97:be:a4:3e:50:5f:76:ee:47:0d:b0:3b:ca:08:
                    7a:7f:9f:5d:89:aa:89:7d:57:cc:ee:6d:34:4d:f2:
                    5e:18:56:87:19:40:77:9f:ea:e3:31:14:fa:53:f1:
                    68:e8:c1:d4:72:9c:d6:61:2c:40:37:96:c5:42:66:
                    7b:3f:50:d7:c1:49:b5:15:af:e9:57:8d:a5:b1:65:
                    4f:73:6d:72:8c:98:8e:6f:ad:5d:4c:65:c5:1a:ee:
                    c1:93:6a:14:0a:fe:c7:dc:06:d2:fb:e7:6a:6f:49:
                    30:cd:6b:d6:9f:40:88:af:b0:b0:ac:dd:17:29:38:
                    b3:a5:68:42:7c:ad:38:dd:96:ae:57:b4:fa:04:07:
                    49:d7:be:f6:e8:00:07:a1:e3:04:4e:10:d1:fd:08:
                    ba:7f:99:bc:3c:57:e2:7a:34:95:27:89:54:01:8e:
                    e0:85
                Exponent: 65537 (0x10001)
    Signature Algorithm: sha256WithRSAEncryption
         30:b1:d5:63:2b:18:df:58:f3:46:96:7c:7a:20:06:3b:b6:2f:
         0f:bc:89:0d:8f:f0:a8:3c:54:6e:27:ef:28:5a:93:21:75:69:
         11:74:f0:cd:e9:0d:f4:57:29:63:29:d9:c6:b7:27:56:dc:18:
         cd:17:41:9c:ff:40:c4:ec:e1:43:9b:07:e7:f0:b7:7b:68:61:
         ea:1d:90:14:0b:5e:fe:f5:25:da:7e:45:eb:3c:db:b4:f1:3c:
         a6:ec:d1:01:11:1b:68:cd:76:6d:74:ca:f2:76:04:d1:86:4c:
         25:87:1b:f6:c8:be:aa:34:ba:6a:3a:a8:d4:93:0d:38:25:ac:
         52:d7:8d:0e:11:2b:fe:e6:b6:58:3b:d5:5e:9e:26:ad:5c:64:
         bc:24:9e:d1:94:c9:46:f2:49:f8:7a:d2:ec:11:1e:13:db:b1:
         f6:a6:05:40:6a:74:df:5c:bf:0e:2b:4e:4c:21:45:73:8e:b9:
         fd:b8:7a:51:37:6b:a0:c2:c9:4d:46:92:14:90:60:dc:31:85:
         ab:04:08:d5:9e:75:15:c9:3f:a5:18:69:1b:95:1b:64:ff:b3:
         c1:59:51:c7:4f:6f:a8:fe:f7:b0:32:93:4c:68:7b:b4:0a:22:
         fb:8a:84:c8:30:8f:c9:d4:a3:c7:6a:a4:41:c2:7d:47:94:55:
         43:b9:25:35
-----BEGIN CERTIFICATE-----
MIICvzCCAacCAQEwDQYJKoZIhvcNAQELBQAwGzELMAkGA1UEBhMCVVMxDDAKBgNV
BAMMA09ORjAgFw0xOTA2MTIxOTE1NDJaGA8yMTE5MDUxOTE5MTU0MlowLjEfMB0G
A1UEAwwWY29uZmlnLm9ub3Nwcm9qZWN0Lm9yZzELMAkGA1UEBhMCVVMwggEiMA0G
CSqGSIb3DQEBAQUAA4IBDwAwggEKAoIBAQDIeUe32RogerLjcTz3afGeuOqj6/+N
FIPXcBAADn8eshGZG3gqxWuEbXcNGpj6wYUmRbIEkZUywM8cZNwN1CgeSfCAl4FX
5qMkvD5fKrjfdCJOmriyKlyVgm6XvqQ+UF927kcNsDvKCHp/n12Jqol9V8zubTRN
8l4YVocZQHef6uMxFPpT8WjowdRynNZhLEA3lsVCZns/UNfBSbUVr+lXjaWxZU9z
bXKMmI5vrV1MZcUa7sGTahQK/sfcBtL752pvSTDNa9afQIivsLCs3RcpOLOlaEJ8
rTjdlq5XtPoEB0nXvvboAAeh4wROENH9CLp/mbw8V+J6NJUniVQBjuCFAgMBAAEw
DQYJKoZIhvcNAQELBQADggEBADCx1WMrGN9Y80aWfHogBju2Lw+8iQ2P8Kg8VG4n
7yhakyF1aRF08M3pDfRXKWMp2ca3J1bcGM0XQZz/QMTs4UObB+fwt3toYeodkBQL
Xv71Jdp+Res827TxPKbs0QERG2jNdm10yvJ2BNGGTCWHG/bIvqo0umo6qNSTDTgl
rFLXjQ4RK/7mtlg71V6eJq1cZLwkntGUyUbySfh60uwRHhPbsfamBUBqdN9cvw4r
TkwhRXOOuf24elE3a6DCyU1GkhSQYNwxhasECNWedRXJP6UYaRuVG2T/s8FZUcdP
b6j+97Ayk0xoe7QKIvuKhMgwj8nUo8dqpEHCfUeUVUO5JTU=
-----END CERTIFICATE-----
