Certificate:
    Data:
        Version: 1 (0x0)
        Serial Number: 1 (0x1)
    Signature Algorithm: sha256WithRSAEncryption
        Issuer: C=US, CN=ONF
        Validity
            Not Before: May 10 11:46:28 2019 GMT
            Not After : Apr 16 11:46:28 2119 GMT
        Subject: CN=config.onosproject.org, C=US
        Subject Public Key Info:
            Public Key Algorithm: rsaEncryption
                Public-Key: (2048 bit)
                Modulus:
                    00:a7:fd:62:0c:42:d0:a3:81:b7:30:a4:51:50:b3:
                    96:a1:ee:cb:60:34:e6:8b:26:8b:20:c4:60:23:4a:
                    a0:15:21:2d:0b:52:63:30:c4:c3:1b:11:97:06:d9:
                    c1:c7:1e:cd:81:e4:3f:ea:eb:87:f2:39:d9:42:7d:
                    a8:a2:98:74:28:3c:10:c5:ac:87:5c:56:46:87:93:
                    06:4d:ec:ae:e1:18:74:51:6a:63:76:f9:a3:89:26:
                    6f:be:d0:3f:ca:36:ef:c9:1c:3c:17:21:d1:39:6b:
                    69:56:19:4f:e1:45:e8:48:42:32:73:2e:55:b4:99:
                    f1:2d:c5:57:96:7e:43:6b:ba:34:e0:0d:30:09:0a:
                    d4:82:53:9c:b8:ce:52:46:6b:97:8e:cf:6f:42:96:
                    f6:25:3c:b5:cf:13:39:1b:58:7f:8b:22:97:1a:f6:
                    a5:9f:5a:7f:63:23:9a:76:e1:43:14:73:3a:51:e5:
                    32:28:00:1d:82:ff:44:40:2a:df:45:b4:6a:92:30:
                    f6:0c:03:c4:59:88:0b:2a:fc:8d:40:f2:c9:b5:64:
                    39:6c:c9:2a:28:d5:60:23:25:60:10:74:bd:f9:5f:
                    ce:d5:2d:8c:cf:2c:9c:73:b3:9d:99:7b:40:2d:39:
                    a7:dd:36:80:2f:f9:95:6c:81:71:c3:a1:db:03:83:
                    01:1d
                Exponent: 65537 (0x10001)
    Signature Algorithm: sha256WithRSAEncryption
         9f:16:7f:8c:f9:c4:89:16:52:a8:b3:2f:ba:29:22:c2:28:33:
         93:23:e9:f8:86:25:01:03:42:db:6a:8e:c0:3c:38:18:47:f7:
         cf:54:7d:fd:73:c0:ec:4a:b6:1f:5a:53:60:51:d5:a5:53:12:
         1e:28:04:9d:dc:8f:44:c3:75:3a:95:bd:d3:3b:58:5e:37:9e:
         a5:79:09:76:23:44:51:5c:e0:7d:a9:e5:74:e6:60:ac:7f:14:
         65:3e:c8:ab:55:b5:04:7d:61:dc:5c:0f:b8:bc:35:6e:f1:21:
         88:51:61:54:db:18:44:52:99:1f:08:c1:5d:45:72:c5:e0:71:
         4a:46:60:b8:2b:5a:3a:17:87:0d:a6:82:44:6d:5d:5d:80:eb:
         03:c5:c2:a1:e3:eb:4f:70:87:30:0d:b1:a9:0d:ac:f8:c8:f3:
         1c:1b:81:b3:cc:d4:e3:a4:76:74:b4:86:11:fc:24:84:b8:ae:
         31:09:6d:7d:3e:e7:50:ac:c1:fe:9d:aa:48:b9:17:db:c7:65:
         e6:85:1e:5b:18:35:96:73:fa:88:8c:bd:52:3f:e4:91:4a:0e:
         83:95:bc:0b:0e:0f:f9:f5:d9:68:c8:9d:d1:d9:d8:97:4e:50:
         ff:8f:c6:b9:b2:c2:49:c6:d6:9c:55:03:74:f6:07:b5:ce:87:
         38:49:4a:bb
-----BEGIN CERTIFICATE-----
MIICvzCCAacCAQEwDQYJKoZIhvcNAQELBQAwGzELMAkGA1UEBhMCVVMxDDAKBgNV
BAMMA09ORjAgFw0xOTA1MTAxMTQ2MjhaGA8yMTE5MDQxNjExNDYyOFowLjEfMB0G
A1UEAwwWY29uZmlnLm9ub3Nwcm9qZWN0Lm9yZzELMAkGA1UEBhMCVVMwggEiMA0G
CSqGSIb3DQEBAQUAA4IBDwAwggEKAoIBAQCn/WIMQtCjgbcwpFFQs5ah7stgNOaL
JosgxGAjSqAVIS0LUmMwxMMbEZcG2cHHHs2B5D/q64fyOdlCfaiimHQoPBDFrIdc
VkaHkwZN7K7hGHRRamN2+aOJJm++0D/KNu/JHDwXIdE5a2lWGU/hRehIQjJzLlW0
mfEtxVeWfkNrujTgDTAJCtSCU5y4zlJGa5eOz29ClvYlPLXPEzkbWH+LIpca9qWf
Wn9jI5p24UMUczpR5TIoAB2C/0RAKt9FtGqSMPYMA8RZiAsq/I1A8sm1ZDlsySoo
1WAjJWAQdL35X87VLYzPLJxzs52Ze0AtOafdNoAv+ZVsgXHDodsDgwEdAgMBAAEw
DQYJKoZIhvcNAQELBQADggEBAJ8Wf4z5xIkWUqizL7opIsIoM5Mj6fiGJQEDQttq
jsA8OBhH989Uff1zwOxKth9aU2BR1aVTEh4oBJ3cj0TDdTqVvdM7WF43nqV5CXYj
RFFc4H2p5XTmYKx/FGU+yKtVtQR9YdxcD7i8NW7xIYhRYVTbGERSmR8IwV1FcsXg
cUpGYLgrWjoXhw2mgkRtXV2A6wPFwqHj609whzANsakNrPjI8xwbgbPM1OOkdnS0
hhH8JIS4rjEJbX0+51Cswf6dqki5F9vHZeaFHlsYNZZz+oiMvVI/5JFKDoOVvAsO
D/n12WjIndHZ2JdOUP+PxrmywknG1pxVA3T2B7XOhzhJSrs=
-----END CERTIFICATE-----
